target datalayout = "e-m:e-p270:32:32-p271:32:32-p272:64:64-i64:64-i128:128-f80:128-n8:16:32:64-S128"
target triple = "x86_64-unknown-linux-gnu"

; Function Attrs: nounwind sspstrong uwtable
define dso_local i64 @helper_csrr(ptr noundef %env, i32 noundef %csr) #1 {
entry:
  %env.addr = alloca ptr, align 8
  %csr.addr = alloca i32, align 4
  %val = alloca i64, align 8
  %ret = alloca i32, align 4
  store ptr %env, ptr %env.addr, align 8
  store i32 %csr, ptr %csr.addr, align 4
  %0 = load i32, ptr %csr.addr, align 4
  %cmp = icmp eq i32 %0, 21
  br i1 %cmp, label %if.then, label %if.end

if.then:                                          ; preds = %entry
  %1 = load ptr, ptr %env.addr, align 8
  %2 = call ptr @llvm.returnaddress(i32 0)
  %3 = ptrtoint ptr %2 to i64
  call void @riscv_raise_exception(ptr noundef %1, i32 noundef 2, i64 noundef %3) #6
  unreachable

if.end:                                           ; preds = %entry
  store i64 0, ptr %val, align 8
  %4 = load ptr, ptr %env.addr, align 8
  %5 = load i32, ptr %csr.addr, align 4
  %call = call i32 @riscv_csrrw(ptr noundef %4, i32 noundef %5, ptr noundef %val, i64 noundef 0, i64 noundef 0)
  store i32 %call, ptr %ret, align 4
  %6 = load i32, ptr %ret, align 4
  %cmp1 = icmp ne i32 %6, -1
  br i1 %cmp1, label %if.then2, label %if.end3

if.then2:                                         ; preds = %if.end
  %7 = load ptr, ptr %env.addr, align 8
  %8 = load i32, ptr %ret, align 4
  %9 = call ptr @llvm.returnaddress(i32 0)
  %10 = ptrtoint ptr %9 to i64
  call void @riscv_raise_exception(ptr noundef %7, i32 noundef %8, i64 noundef %10) #6
  unreachable

if.end3:                                          ; preds = %if.end
  %11 = load i64, ptr %val, align 8
  ret i64 %11
}