; Function Attrs: nounwind sspstrong uwtable
define dso_local i64 @helper_csrr(ptr noundef %env, i32 noundef %csr) local_unnamed_addr #2 {
entry:
  %val = alloca i64, align 8
  %cmp = icmp eq i32 %csr, 21
  br i1 %cmp, label %if.then, label %if.end

if.then:                                          ; preds = %entry
  %0 = tail call ptr @llvm.returnaddress(i32 0)
  %1 = ptrtoint ptr %0 to i64
  tail call void @riscv_raise_exception(ptr noundef %env, i32 noundef 2, i64 noundef %1) #8
  unreachable

if.end:                                           ; preds = %entry
  store i64 0, ptr %val, align 8
  %call = call i32 @riscv_csrrw(ptr noundef %env, i32 noundef %csr, ptr noundef nonnull %val, i64 noundef 0, i64 noundef 0) #9
  %cmp1.not = icmp eq i32 %call, -1
  br i1 %cmp1.not, label %if.end3, label %if.then2

if.then2:                                         ; preds = %if.end
  %2 = call ptr @llvm.returnaddress(i32 0)
  %3 = ptrtoint ptr %2 to i64
  call void @riscv_raise_exception(ptr noundef %env, i32 noundef %call, i64 noundef %3) #8
  unreachable

if.end3:                                          ; preds = %if.end
  %4 = load i64, ptr %val, align 8
  ret i64 %4
}